target datalayout = "e-m:e-p270:32:32-p271:32:32-p272:64:64-i64:64-i128:128-f80:128-n8:16:32:64-S128"
target triple = "x86_64-pc-linux-gnu"

%"class.base::BasicStringPiece.0" = type { ptr, i64 }

; Function Attrs: mustprogress nounwind uwtable
define weak_odr noundef zeroext i16 @_ZNK4base16BasicStringPieceINSt7__cxx1112basic_stringItNS_20string16_char_traitsESaItEEEEixEm(ptr noundef nonnull align 8 dereferenceable(16) %0, i64 noundef %1) #0 comdat align 2 {
  %3 = alloca ptr, align 8
  %4 = alloca i64, align 8
  store ptr %0, ptr %3, align 8, !tbaa !43
  store i64 %1, ptr %4, align 8, !tbaa !19
  %5 = load ptr, ptr %3, align 8
  %6 = getelementptr inbounds nuw %"class.base::BasicStringPiece.0", ptr %5, i32 0, i32 0
  %7 = load ptr, ptr %6, align 8, !tbaa !45
  %8 = load i64, ptr %4, align 8, !tbaa !19
  %9 = getelementptr inbounds nuw i16, ptr %7, i64 %8
  %10 = load i16, ptr %9, align 2, !tbaa !60
  ret i16 %10
}

; Function Attrs: mustprogress nounwind uwtable
define weak_odr noundef i64 @_ZNK4base16BasicStringPieceINSt7__cxx1112basic_stringItNS_20string16_char_traitsESaItEEEE4sizeEv(ptr noundef nonnull align 8 dereferenceable(16) %0) #0 comdat align 2 {
  %2 = alloca ptr, align 8
  store ptr %0, ptr %2, align 8, !tbaa !43
  %3 = load ptr, ptr %2, align 8
  %4 = getelementptr inbounds nuw %"class.base::BasicStringPiece.0", ptr %3, i32 0, i32 1
  %5 = load i64, ptr %4, align 8, !tbaa !48
  ret i64 %5
}

; Function Attrs: mustprogress nounwind uwtable
define noundef i64 @_ZN4base8internal17find_first_not_ofERKNS_16BasicStringPieceINSt7__cxx1112basic_stringItNS_20string16_char_traitsESaItEEEEES9_m(ptr noundef nonnull align 8 dereferenceable(16) %0, ptr noundef nonnull align 8 dereferenceable(16) %1, i64 noundef %2) #0 {
  %4 = alloca i64, align 8
  %5 = alloca ptr, align 8
  %6 = alloca ptr, align 8
  %7 = alloca i64, align 8
  %8 = alloca i64, align 8
  %9 = alloca i32, align 4
  %10 = alloca i8, align 1
  %11 = alloca i64, align 8
  store ptr %0, ptr %5, align 8, !tbaa !43
  store ptr %1, ptr %6, align 8, !tbaa !43
  store i64 %2, ptr %7, align 8, !tbaa !19
  %12 = load ptr, ptr %5, align 8, !tbaa !43
  %13 = call noundef i64 @_ZNK4base16BasicStringPieceINSt7__cxx1112basic_stringItNS_20string16_char_traitsESaItEEEE4sizeEv(ptr noundef nonnull align 8 dereferenceable(16) %12)
  %14 = icmp eq i64 %13, 0
  br i1 %14, label %15, label %16

15:                                               ; preds = %3
  store i64 -1, ptr %4, align 8
  br label %62

16:                                               ; preds = %3
  call void @llvm.lifetime.start.p0(i64 8, ptr %8) #14
  %17 = load i64, ptr %7, align 8, !tbaa !19
  store i64 %17, ptr %8, align 8, !tbaa !19
  br label %18

18:                                               ; preds = %56, %16
  %19 = load i64, ptr %8, align 8, !tbaa !19
  %20 = load ptr, ptr %5, align 8, !tbaa !43
  %21 = call noundef i64 @_ZNK4base16BasicStringPieceINSt7__cxx1112basic_stringItNS_20string16_char_traitsESaItEEEE4sizeEv(ptr noundef nonnull align 8 dereferenceable(16) %20)
  %22 = icmp ult i64 %19, %21
  br i1 %22, label %24, label %23

23:                                               ; preds = %18
  store i32 2, ptr %9, align 4
  br label %59

24:                                               ; preds = %18
  call void @llvm.lifetime.start.p0(i64 1, ptr %10) #14
  store i8 0, ptr %10, align 1, !tbaa !34
  call void @llvm.lifetime.start.p0(i64 8, ptr %11) #14
  store i64 0, ptr %11, align 8, !tbaa !19
  br label %25

25:                                               ; preds = %43, %24
  %26 = load i64, ptr %11, align 8, !tbaa !19
  %27 = load ptr, ptr %6, align 8, !tbaa !43
  %28 = call noundef i64 @_ZNK4base16BasicStringPieceINSt7__cxx1112basic_stringItNS_20string16_char_traitsESaItEEEE4sizeEv(ptr noundef nonnull align 8 dereferenceable(16) %27)
  %29 = icmp ult i64 %26, %28
  br i1 %29, label %31, label %30

30:                                               ; preds = %25
  store i32 5, ptr %9, align 4
  br label %46

31:                                               ; preds = %25
  %32 = load ptr, ptr %5, align 8, !tbaa !43
  %33 = load i64, ptr %8, align 8, !tbaa !19
  %34 = call noundef zeroext i16 @_ZNK4base16BasicStringPieceINSt7__cxx1112basic_stringItNS_20string16_char_traitsESaItEEEEixEm(ptr noundef nonnull align 8 dereferenceable(16) %32, i64 noundef %33)
  %35 = zext i16 %34 to i32
  %36 = load ptr, ptr %6, align 8, !tbaa !43
  %37 = load i64, ptr %11, align 8, !tbaa !19
  %38 = call noundef zeroext i16 @_ZNK4base16BasicStringPieceINSt7__cxx1112basic_stringItNS_20string16_char_traitsESaItEEEEixEm(ptr noundef nonnull align 8 dereferenceable(16) %36, i64 noundef %37)
  %39 = zext i16 %38 to i32
  %40 = icmp eq i32 %35, %39
  br i1 %40, label %41, label %42

41:                                               ; preds = %31
  store i8 1, ptr %10, align 1, !tbaa !34
  store i32 5, ptr %9, align 4
  br label %46

42:                                               ; preds = %31
  br label %43

43:                                               ; preds = %42
  %44 = load i64, ptr %11, align 8, !tbaa !19
  %45 = add i64 %44, 1
  store i64 %45, ptr %11, align 8, !tbaa !19
  br label %25, !llvm.loop !68

46:                                               ; preds = %41, %30
  call void @llvm.lifetime.end.p0(i64 8, ptr %11) #14
  br label %47

47:                                               ; preds = %46
  %48 = load i8, ptr %10, align 1, !tbaa !34, !range !36, !noundef !37
  %49 = trunc i8 %48 to i1
  br i1 %49, label %52, label %50

50:                                               ; preds = %47
  %51 = load i64, ptr %8, align 8, !tbaa !19
  store i64 %51, ptr %4, align 8
  store i32 1, ptr %9, align 4
  br label %53

52:                                               ; preds = %47
  store i32 0, ptr %9, align 4
  br label %53

53:                                               ; preds = %52, %50
  call void @llvm.lifetime.end.p0(i64 1, ptr %10) #14
  %54 = load i32, ptr %9, align 4
  switch i32 %54, label %59 [
    i32 0, label %55
  ]

55:                                               ; preds = %53
  br label %56

56:                                               ; preds = %55
  %57 = load i64, ptr %8, align 8, !tbaa !19
  %58 = add i64 %57, 1
  store i64 %58, ptr %8, align 8, !tbaa !19
  br label %18, !llvm.loop !69

59:                                               ; preds = %53, %23
  call void @llvm.lifetime.end.p0(i64 8, ptr %8) #14
  %60 = load i32, ptr %9, align 4
  switch i32 %60, label %64 [
    i32 2, label %61
    i32 1, label %62
  ]

61:                                               ; preds = %59
  store i64 -1, ptr %4, align 8
  br label %62

62:                                               ; preds = %61, %59, %15
  %63 = load i64, ptr %4, align 8
  ret i64 %63

64:                                               ; preds = %59
  unreachable
}