; Function Attrs: mustprogress nofree norecurse nosync nounwind willreturn memory(read, inaccessiblemem: none) uwtable
define noundef i64 @_ZN4base8internal17find_first_not_ofERKNS_16BasicStringPieceINSt7__cxx1112basic_stringItNS_20string16_char_traitsESaItEEEEES9_m(ptr noundef nonnull readonly align 8 captures(none) dereferenceable(16) %0, ptr noundef nonnull readonly align 8 captures(none) dereferenceable(16) %1, i64 noundef %2) local_unnamed_addr #5 {
  %4 = getelementptr inbounds nuw i8, ptr %0, i64 8
  %5 = load i64, ptr %4, align 8, !tbaa !38
  %.not28 = icmp ult i64 %2, %5
  br i1 %.not28, label %.preheader.lr.ph, label %.loopexit

.preheader.lr.ph:                                 ; preds = %3
  %6 = getelementptr inbounds nuw i8, ptr %1, i64 8
  %7 = load i64, ptr %6, align 8, !tbaa !38
  %.not = icmp eq i64 %7, 0
  %8 = load ptr, ptr %0, align 8
  %9 = load ptr, ptr %1, align 8
  br i1 %.not, label %.loopexit, label %.preheader.us

.preheader.us:                                    ; preds = %.preheader.lr.ph, %18
  %.01829.us = phi i64 [ %19, %18 ], [ %2, %.preheader.lr.ph ]
  %10 = getelementptr inbounds nuw i16, ptr %8, i64 %.01829.us
  %11 = load i16, ptr %10, align 2, !tbaa !44
  br label %14

12:                                               ; preds = %14
  %13 = add nuw i64 %.026.us, 1
  %exitcond.not = icmp eq i64 %13, %7
  br i1 %exitcond.not, label %.loopexit, label %14, !llvm.loop !53

14:                                               ; preds = %.preheader.us, %12
  %.026.us = phi i64 [ 0, %.preheader.us ], [ %13, %12 ]
  %15 = getelementptr inbounds nuw i16, ptr %9, i64 %.026.us
  %16 = load i16, ptr %15, align 2, !tbaa !44
  %17 = icmp eq i16 %11, %16
  br i1 %17, label %18, label %12

18:                                               ; preds = %14
  %19 = add nuw i64 %.01829.us, 1
  %exitcond32.not = icmp eq i64 %19, %5
  br i1 %exitcond32.not, label %.loopexit, label %.preheader.us, !llvm.loop !54

.loopexit:                                        ; preds = %18, %12, %.preheader.lr.ph, %3
  %.019 = phi i64 [ -1, %3 ], [ %2, %.preheader.lr.ph ], [ %.01829.us, %12 ], [ -1, %18 ]
  ret i64 %.019
}